target datalayout = "e-m:e-p270:32:32-p271:32:32-p272:64:64-i64:64-i128:128-f80:128-n8:16:32:64-S128"
target triple = "x86_64-pc-linux-gnu"

%struct._lv_circle_buf_t = type { %struct._lv_array_t, i32, i32, i8 }
%struct._lv_array_t = type { ptr, i32, i32, i32, i8 }

; Function Attrs: nounwind uwtable
define internal void @circle_buf_prepare_empty(ptr noundef %0) #0 {
  %2 = alloca ptr, align 8
  %3 = alloca i32, align 4
  %4 = alloca i32, align 4
  store ptr %0, ptr %2, align 8, !tbaa !7
  call void @llvm.lifetime.start.p0(i64 4, ptr %3) #4
  %5 = load ptr, ptr %2, align 8, !tbaa !7
  %6 = getelementptr inbounds nuw %struct._lv_circle_buf_t, ptr %5, i32 0, i32 0
  %7 = call i32 @lv_array_capacity(ptr noundef %6)
  %8 = load ptr, ptr %2, align 8, !tbaa !7
  %9 = getelementptr inbounds nuw %struct._lv_circle_buf_t, ptr %8, i32 0, i32 0
  %10 = call i32 @lv_array_size(ptr noundef %9)
  %11 = sub i32 %7, %10
  store i32 %11, ptr %3, align 4, !tbaa !3
  call void @llvm.lifetime.start.p0(i64 4, ptr %4) #4
  store i32 0, ptr %4, align 4, !tbaa !3
  br label %12

12:                                               ; preds = %21, %1
  %13 = load i32, ptr %4, align 4, !tbaa !3
  %14 = load i32, ptr %3, align 4, !tbaa !3
  %15 = icmp ult i32 %13, %14
  br i1 %15, label %17, label %16

16:                                               ; preds = %12
  call void @llvm.lifetime.end.p0(i64 4, ptr %4) #4
  br label %24

17:                                               ; preds = %12
  %18 = load ptr, ptr %2, align 8, !tbaa !7
  %19 = getelementptr inbounds nuw %struct._lv_circle_buf_t, ptr %18, i32 0, i32 0
  %20 = call i32 @lv_array_push_back(ptr noundef %19, ptr noundef null)
  br label %21

21:                                               ; preds = %17
  %22 = load i32, ptr %4, align 4, !tbaa !3
  %23 = add i32 %22, 1
  store i32 %23, ptr %4, align 4, !tbaa !3
  br label %12, !llvm.loop !17

24:                                               ; preds = %16
  call void @llvm.lifetime.end.p0(i64 4, ptr %3) #4
  ret void
}

; Function Attrs: nounwind uwtable
define i32 @lv_circle_buf_resize(ptr noundef %0, i32 noundef %1) #0 {
  %3 = alloca i32, align 4
  %4 = alloca ptr, align 8
  %5 = alloca i32, align 4
  store ptr %0, ptr %4, align 8, !tbaa !7
  store i32 %1, ptr %5, align 4, !tbaa !3
  br label %6

6:                                                ; preds = %2
  %7 = load ptr, ptr %4, align 8, !tbaa !7
  %8 = icmp ne ptr %7, null
  br i1 %8, label %13, label %9

9:                                                ; preds = %6
  br label %10

10:                                               ; preds = %9
  br label %11

11:                                               ; preds = %10
  br label %12

12:                                               ; preds = %11, %12
  br label %12

13:                                               ; preds = %6
  br label %14

14:                                               ; preds = %13
  %15 = load ptr, ptr %4, align 8, !tbaa !7
  %16 = getelementptr inbounds nuw %struct._lv_circle_buf_t, ptr %15, i32 0, i32 0
  %17 = load i32, ptr %5, align 4, !tbaa !3
  %18 = call zeroext i1 @lv_array_resize(ptr noundef %16, i32 noundef %17)
  %19 = zext i1 %18 to i32
  %20 = icmp eq i32 %19, 0
  br i1 %20, label %21, label %22

21:                                               ; preds = %14
  store i32 0, ptr %3, align 4
  br label %28

22:                                               ; preds = %14
  %23 = load ptr, ptr %4, align 8, !tbaa !7
  %24 = getelementptr inbounds nuw %struct._lv_circle_buf_t, ptr %23, i32 0, i32 1
  store i32 0, ptr %24, align 8, !tbaa !10
  %25 = load ptr, ptr %4, align 8, !tbaa !7
  %26 = getelementptr inbounds nuw %struct._lv_circle_buf_t, ptr %25, i32 0, i32 2
  store i32 0, ptr %26, align 4, !tbaa !15
  %27 = load ptr, ptr %4, align 8, !tbaa !7
  call void @circle_buf_prepare_empty(ptr noundef %27)
  store i32 1, ptr %3, align 4
  br label %28

28:                                               ; preds = %22, %21
  %29 = load i32, ptr %3, align 4
  ret i32 %29
}