; Function Attrs: nounwind uwtable
define range(i32 0, 2) i32 @lv_circle_buf_resize(ptr noundef %0, i32 noundef %1) local_unnamed_addr #0 {
  %.not = icmp eq ptr %0, null
  br i1 %.not, label %.preheader, label %3

.preheader:                                       ; preds = %2, %.preheader
  br label %.preheader

3:                                                ; preds = %2
  %4 = tail call zeroext i1 @lv_array_resize(ptr noundef nonnull %0, i32 noundef %1) #6
  br i1 %4, label %5, label %circle_buf_prepare_empty.exit

5:                                                ; preds = %3
  %6 = getelementptr inbounds nuw i8, ptr %0, i64 24
  store i32 0, ptr %6, align 8, !tbaa !3
  %7 = getelementptr inbounds nuw i8, ptr %0, i64 28
  store i32 0, ptr %7, align 4, !tbaa !12
  %8 = tail call i32 @lv_array_capacity(ptr noundef nonnull %0) #6
  %9 = tail call i32 @lv_array_size(ptr noundef nonnull %0) #6
  %10 = sub i32 %8, %9
  %.not.i = icmp eq i32 %8, %9
  br i1 %.not.i, label %circle_buf_prepare_empty.exit, label %.lr.ph.i

.lr.ph.i:                                         ; preds = %5, %.lr.ph.i
  %.05.i = phi i32 [ %12, %.lr.ph.i ], [ 0, %5 ]
  %11 = tail call i32 @lv_array_push_back(ptr noundef nonnull %0, ptr noundef null) #6
  %12 = add nuw i32 %.05.i, 1
  %exitcond.not.i = icmp eq i32 %12, %10
  br i1 %exitcond.not.i, label %circle_buf_prepare_empty.exit, label %.lr.ph.i, !llvm.loop !14

circle_buf_prepare_empty.exit:                    ; preds = %.lr.ph.i, %5, %3
  %.0 = phi i32 [ 0, %3 ], [ 1, %5 ], [ 1, %.lr.ph.i ]
  ret i32 %.0
}